; Function Attrs: mustprogress uwtable
define void @_ZN5faiss15IndexBinaryHNSW5resetEv(ptr noundef nonnull align 8 dereferenceable(5200) %0) unnamed_addr #1 align 2 {
  %2 = getelementptr inbounds i8, ptr %0, i64 32
  tail call void @_ZN5faiss4HNSW5resetEv(ptr noundef nonnull align 8 dereferenceable(5149) %2)
  %3 = getelementptr inbounds i8, ptr %0, i64 5192
  %4 = load ptr, ptr %3, align 8
  %5 = load ptr, ptr %4, align 8
  %6 = getelementptr inbounds i8, ptr %5, i64 56
  %7 = load ptr, ptr %6, align 8
  tail call void %7(ptr noundef nonnull align 8 dereferenceable(32) %4)
  %8 = getelementptr inbounds i8, ptr %0, i64 16
  store i64 0, ptr %8, align 8
  ret void
}